; Function Attrs: mustprogress nounwind uwtable
define void @_ZN5osgeo4proj5datum5DatumD2Ev(ptr noundef nonnull align 8 dereferenceable(64) %0) unnamed_addr #4 align 2 personality ptr @__gxx_personality_v0 {
  store ptr getelementptr inbounds inrange(-16, 32) ({ [6 x ptr], [5 x ptr], [5 x ptr], [5 x ptr] }, ptr @_ZTVN5osgeo4proj5datum5DatumE, i64 0, i32 0, i64 2), ptr %0, align 8
  %2 = getelementptr inbounds i8, ptr %0, i64 16
  store ptr getelementptr inbounds inrange(-16, 24) ({ [6 x ptr], [5 x ptr], [5 x ptr], [5 x ptr] }, ptr @_ZTVN5osgeo4proj5datum5DatumE, i64 0, i32 1, i64 2), ptr %2, align 8
  %3 = getelementptr inbounds i8, ptr %0, i64 24
  store ptr getelementptr inbounds inrange(-16, 24) ({ [6 x ptr], [5 x ptr], [5 x ptr], [5 x ptr] }, ptr @_ZTVN5osgeo4proj5datum5DatumE, i64 0, i32 2, i64 2), ptr %3, align 8
  %4 = getelementptr inbounds i8, ptr %0, i64 48
  store ptr getelementptr inbounds inrange(-16, 24) ({ [6 x ptr], [5 x ptr], [5 x ptr], [5 x ptr] }, ptr @_ZTVN5osgeo4proj5datum5DatumE, i64 0, i32 3, i64 2), ptr %4, align 8
  %5 = getelementptr inbounds i8, ptr %0, i64 56
  %6 = load ptr, ptr %5, align 8
  %.not.i = icmp eq ptr %6, null
  br i1 %.not.i, label %_ZNSt10unique_ptrIN5osgeo4proj5datum5Datum7PrivateESt14default_deleteIS4_EED2Ev.exit, label %_ZNKSt14default_deleteIN5osgeo4proj5datum5Datum7PrivateEEclEPS4_.exit.i

_ZNKSt14default_deleteIN5osgeo4proj5datum5Datum7PrivateEEclEPS4_.exit.i: ; preds = %1
  tail call void @_ZN5osgeo4proj5datum5Datum7PrivateD2Ev(ptr noundef nonnull align 8 dereferenceable(88) %6) #26
  tail call void @_ZdlPv(ptr noundef nonnull %6) #28
  br label %_ZNSt10unique_ptrIN5osgeo4proj5datum5Datum7PrivateESt14default_deleteIS4_EED2Ev.exit

_ZNSt10unique_ptrIN5osgeo4proj5datum5Datum7PrivateESt14default_deleteIS4_EED2Ev.exit: ; preds = %1, %_ZNKSt14default_deleteIN5osgeo4proj5datum5Datum7PrivateEEclEPS4_.exit.i
  store ptr null, ptr %5, align 8
  tail call void @_ZN5osgeo4proj2io15IJSONExportableD2Ev(ptr noundef nonnull align 8 dereferenceable(8) %4) #26
  tail call void @_ZN5osgeo4proj6common11ObjectUsageD2Ev(ptr noundef nonnull align 8 dereferenceable(48) %0) #26
  ret void
}